; Function Attrs: nounwind uwtable
define void @cuddShrinkDeathRow(ptr noundef captures(none) %0) local_unnamed_addr #2 {
  %2 = getelementptr inbounds nuw i8, ptr %0, i64 424
  %3 = load i32, ptr %2, align 8, !tbaa !47
  %4 = icmp sgt i32 %3, 3
  br i1 %4, label %.lr.ph, label %84

.lr.ph:                                           ; preds = %1
  %5 = getelementptr inbounds nuw i8, ptr %0, i64 416
  %6 = load ptr, ptr %5, align 8, !tbaa !39
  %7 = getelementptr inbounds nuw i8, ptr %0, i64 280
  %8 = getelementptr inbounds nuw i8, ptr %0, i64 228
  %9 = getelementptr inbounds nuw i8, ptr %0, i64 236
  %10 = getelementptr inbounds nuw i8, ptr %0, i64 728
  %11 = getelementptr inbounds nuw i8, ptr %0, i64 312
  %12 = getelementptr inbounds nuw i8, ptr %0, i64 152
  %13 = lshr i32 %3, 2
  %14 = zext nneg i32 %13 to i64
  %15 = zext nneg i32 %3 to i64
  br label %16

16:                                               ; preds = %.lr.ph, %Cudd_IterDerefBdd.exit
  %indvars.iv = phi i64 [ %14, %.lr.ph ], [ %indvars.iv.next, %Cudd_IterDerefBdd.exit ]
  %17 = getelementptr inbounds nuw ptr, ptr %6, i64 %indvars.iv
  %18 = load ptr, ptr %17, align 8, !tbaa !33
  %19 = icmp eq ptr %18, null
  br i1 %19, label %._crit_edge, label %20

20:                                               ; preds = %16
  %21 = load ptr, ptr %7, align 8, !tbaa !11
  %22 = load i32, ptr %8, align 4, !tbaa !25
  %23 = load i32, ptr %9, align 4, !tbaa !26
  %24 = sub i32 %22, %23
  %25 = load i32, ptr %10, align 8, !tbaa !27
  %26 = icmp ugt i32 %24, %25
  br i1 %26, label %27, label %28

27:                                               ; preds = %20
  store i32 %24, ptr %10, align 8, !tbaa !27
  br label %28

28:                                               ; preds = %27, %20
  %29 = ptrtoint ptr %18 to i64
  %30 = and i64 %29, -2
  %31 = inttoptr i64 %30 to ptr
  br label %32

32:                                               ; preds = %63, %28
  %33 = phi i32 [ %23, %28 ], [ %64, %63 ]
  %.022.i = phi i32 [ 1, %28 ], [ %.123.i, %63 ]
  %.0.i = phi ptr [ %31, %28 ], [ %.1.i, %63 ]
  %34 = getelementptr inbounds nuw i8, ptr %.0.i, i64 4
  %35 = load i32, ptr %34, align 4, !tbaa !3
  %36 = icmp eq i32 %35, 1
  br i1 %36, label %37, label %58

37:                                               ; preds = %32
  store i32 0, ptr %34, align 4, !tbaa !3
  %38 = add i32 %33, 1
  store i32 %38, ptr %9, align 4, !tbaa !26
  %39 = load ptr, ptr %11, align 8, !tbaa !30
  %40 = load i32, ptr %.0.i, align 8, !tbaa !28
  %41 = zext i32 %40 to i64
  %42 = getelementptr inbounds nuw i32, ptr %39, i64 %41
  %43 = load i32, ptr %42, align 4, !tbaa !31
  %44 = getelementptr inbounds nuw i8, ptr %.0.i, i64 16
  %45 = getelementptr inbounds nuw i8, ptr %.0.i, i64 24
  %46 = load ptr, ptr %45, align 8, !tbaa !32
  %47 = ptrtoint ptr %46 to i64
  %48 = and i64 %47, -2
  %49 = inttoptr i64 %48 to ptr
  %50 = add nsw i32 %.022.i, 1
  %51 = sext i32 %.022.i to i64
  %52 = getelementptr inbounds ptr, ptr %21, i64 %51
  store ptr %49, ptr %52, align 8, !tbaa !33
  %53 = load ptr, ptr %12, align 8, !tbaa !34
  %54 = sext i32 %43 to i64
  %55 = getelementptr inbounds %struct.DdSubtable, ptr %53, i64 %54, i32 5
  %56 = load i32, ptr %55, align 8, !tbaa !35
  %57 = add i32 %56, 1
  store i32 %57, ptr %55, align 8, !tbaa !35
  br label %63

58:                                               ; preds = %32
  %59 = add i32 %35, -1
  store i32 %59, ptr %34, align 4, !tbaa !3
  %60 = add nsw i32 %.022.i, -1
  %61 = sext i32 %60 to i64
  %62 = getelementptr inbounds ptr, ptr %21, i64 %61
  br label %63

63:                                               ; preds = %58, %37
  %64 = phi i32 [ %38, %37 ], [ %33, %58 ]
  %.123.i = phi i32 [ %50, %37 ], [ %60, %58 ]
  %.1.in.i = phi ptr [ %44, %37 ], [ %62, %58 ]
  %.1.i = load ptr, ptr %.1.in.i, align 8, !tbaa !32
  %.not.i = icmp eq i32 %.123.i, 0
  br i1 %.not.i, label %Cudd_IterDerefBdd.exit, label %32, !llvm.loop !38

Cudd_IterDerefBdd.exit:                           ; preds = %63
  store ptr null, ptr %17, align 8, !tbaa !33
  %indvars.iv.next = add nuw nsw i64 %indvars.iv, 1
  %65 = icmp samesign ult i64 %indvars.iv.next, %15
  br i1 %65, label %16, label %._crit_edge, !llvm.loop !72

._crit_edge:                                      ; preds = %Cudd_IterDerefBdd.exit, %16
  %66 = lshr i32 %3, 2
  store i32 %66, ptr %2, align 8, !tbaa !47
  %67 = add nsw i32 %66, -1
  %68 = getelementptr inbounds nuw i8, ptr %0, i64 432
  store i32 %67, ptr %68, align 8, !tbaa !42
  %69 = getelementptr inbounds nuw i8, ptr %0, i64 428
  %70 = load i32, ptr %69, align 4, !tbaa !40
  %71 = icmp ugt i32 %70, %67
  br i1 %71, label %72, label %73

72:                                               ; preds = %._crit_edge
  store i32 0, ptr %69, align 4, !tbaa !40
  br label %73

73:                                               ; preds = %72, %._crit_edge
  %74 = getelementptr inbounds nuw i8, ptr %0, i64 416
  %75 = load ptr, ptr %74, align 8, !tbaa !39
  %.not = icmp eq ptr %75, null
  %76 = shl nuw i32 %66, 3
  %77 = zext i32 %76 to i64
  br i1 %.not, label %80, label %78

78:                                               ; preds = %73
  %79 = tail call ptr @realloc(ptr noundef nonnull %75, i64 noundef %77) #6
  br label %82

80:                                               ; preds = %73
  %81 = tail call noalias ptr @malloc(i64 noundef %77) #7
  br label %82

82:                                               ; preds = %80, %78
  %83 = phi ptr [ %79, %78 ], [ %81, %80 ]
  store ptr %83, ptr %74, align 8, !tbaa !39
  br label %84

84:                                               ; preds = %82, %1
  ret void
}